; Function Attrs: nounwind sspstrong uwtable
define noundef ptr @cJSONUtils_GeneratePatchesCaseSensitive(ptr noundef %0, ptr noundef %1) local_unnamed_addr #0 {
  %3 = icmp eq ptr %0, null
  %4 = icmp eq ptr %1, null
  %or.cond = or i1 %3, %4
  br i1 %or.cond, label %7, label %5

5:                                                ; preds = %2
  %6 = tail call ptr @cJSON_CreateArray() #13
  tail call fastcc void @create_patches(ptr noundef %6, ptr noundef nonnull @.str, ptr noundef nonnull %0, ptr noundef nonnull %1, i32 noundef 1)
  br label %7

7:                                                ; preds = %2, %5
  %.0 = phi ptr [ %6, %5 ], [ null, %2 ]
  ret ptr %.0
}